target datalayout = "e-m:e-p270:32:32-p271:32:32-p272:64:64-i64:64-i128:128-f80:128-n8:16:32:64-S128"
target triple = "x86_64-pc-linux-gnu"

%"class.std::basic_ostream" = type { ptr, %"class.std::basic_ios" }
%"class.std::basic_ios" = type { %"class.std::ios_base", ptr, i8, i8, ptr, ptr, ptr, ptr }
%"class.std::ios_base" = type { ptr, i64, i64, i32, i32, i32, ptr, %"struct.std::ios_base::_Words", [8 x %"struct.std::ios_base::_Words"], i32, ptr, %"class.std::locale" }
%"struct.std::ios_base::_Words" = type { ptr, i64 }
%"class.std::locale" = type { ptr }
%"class.vas::ot::ObjectTracker::Impl" = type <{ %"class.std::unique_ptr.2", %"class.std::vector", i32, float, i32, i32, i32, i8, [3 x i8] }>
%"class.std::unique_ptr.2" = type { %"struct.std::__uniq_ptr_data.3" }
%"struct.std::__uniq_ptr_data.3" = type { %"class.std::__uniq_ptr_impl.4" }
%"class.std::__uniq_ptr_impl.4" = type { %"class.std::tuple.5" }
%"class.std::tuple.5" = type { %"struct.std::_Tuple_impl.6" }
%"struct.std::_Tuple_impl.6" = type { %"struct.std::_Head_base.9" }
%"struct.std::_Head_base.9" = type { ptr }
%"class.std::vector" = type { %"struct.std::_Vector_base" }
%"struct.std::_Vector_base" = type { %"struct.std::_Vector_base<std::shared_ptr<vas::ot::Tracklet>, std::allocator<std::shared_ptr<vas::ot::Tracklet>>>::_Vector_impl" }
%"struct.std::_Vector_base<std::shared_ptr<vas::ot::Tracklet>, std::allocator<std::shared_ptr<vas::ot::Tracklet>>>::_Vector_impl" = type { %"struct.std::_Vector_base<std::shared_ptr<vas::ot::Tracklet>, std::allocator<std::shared_ptr<vas::ot::Tracklet>>>::_Vector_impl_data" }
%"struct.std::_Vector_base<std::shared_ptr<vas::ot::Tracklet>, std::allocator<std::shared_ptr<vas::ot::Tracklet>>>::_Vector_impl_data" = type { ptr, ptr, ptr }

@_ZSt4cout = external global %"class.std::basic_ostream", align 8
@_ZTISt16invalid_argument = external constant ptr
@.str.12 = private unnamed_addr constant [47 x i8] c"Error: Invalid argument for SetFrameDeltaTime \00", align 1
@.str.13 = private unnamed_addr constant [39 x i8] c"Invalid argument for SetFrameDeltaTime\00", align 1

; Function Attrs: inlinehint mustprogress nounwind uwtable
define linkonce_odr noundef i32 @_ZStorSt12_Ios_IostateS_(i32 noundef %0, i32 noundef %1) #11 comdat {
  %3 = alloca i32, align 4
  %4 = alloca i32, align 4
  store i32 %0, ptr %3, align 4, !tbaa !301
  store i32 %1, ptr %4, align 4, !tbaa !301
  %5 = load i32, ptr %3, align 4, !tbaa !301
  %6 = load i32, ptr %4, align 4, !tbaa !301
  %7 = or i32 %5, %6
  ret i32 %7
}

; Function Attrs: mustprogress nounwind uwtable
define available_externally noundef i32 @_ZNKSt9basic_iosIcSt11char_traitsIcEE7rdstateEv(ptr noundef nonnull align 8 dereferenceable(264) %0) #4 align 2 {
  %2 = alloca ptr, align 8
  store ptr %0, ptr %2, align 8, !tbaa !299
  %3 = load ptr, ptr %2, align 8
  %4 = getelementptr inbounds nuw %"class.std::ios_base", ptr %3, i32 0, i32 5
  %5 = load i32, ptr %4, align 8, !tbaa !303
  ret i32 %5
}

; Function Attrs: mustprogress nounwind uwtable
define linkonce_odr hidden noundef i64 @_ZNSt11char_traitsIcE6lengthEPKc(ptr noundef %0) #4 comdat align 2 {
  %2 = alloca ptr, align 8
  store ptr %0, ptr %2, align 8, !tbaa !18
  %3 = load ptr, ptr %2, align 8, !tbaa !18
  %4 = call i64 @strlen(ptr noundef %3) #3
  ret i64 %4
}

; Function Attrs: mustprogress uwtable
define available_externally void @_ZNSt9basic_iosIcSt11char_traitsIcEE8setstateESt12_Ios_Iostate(ptr noundef nonnull align 8 dereferenceable(264) %0, i32 noundef %1) #7 align 2 {
  %3 = alloca ptr, align 8
  %4 = alloca i32, align 4
  store ptr %0, ptr %3, align 8, !tbaa !299
  store i32 %1, ptr %4, align 4, !tbaa !301
  %5 = load ptr, ptr %3, align 8
  %6 = call noundef i32 @_ZNKSt9basic_iosIcSt11char_traitsIcEE7rdstateEv(ptr noundef nonnull align 8 dereferenceable(264) %5)
  %7 = load i32, ptr %4, align 4, !tbaa !301
  %8 = call noundef i32 @_ZStorSt12_Ios_IostateS_(i32 noundef %6, i32 noundef %7)
  call void @_ZNSt9basic_iosIcSt11char_traitsIcEE5clearESt12_Ios_Iostate(ptr noundef nonnull align 8 dereferenceable(264) %5, i32 noundef %8)
  ret void
}

; Function Attrs: mustprogress uwtable
define available_externally noundef nonnull align 8 dereferenceable(8) ptr @_ZNSolsEPFRSoS_E(ptr noundef nonnull align 8 dereferenceable(8) %0, ptr noundef %1) #7 align 2 {
  %3 = alloca ptr, align 8
  %4 = alloca ptr, align 8
  store ptr %0, ptr %3, align 8, !tbaa !14
  store ptr %1, ptr %4, align 8, !tbaa !30
  %5 = load ptr, ptr %3, align 8
  %6 = load ptr, ptr %4, align 8, !tbaa !30
  %7 = call noundef nonnull align 8 dereferenceable(8) ptr %6(ptr noundef nonnull align 8 dereferenceable(8) %5)
  ret ptr %7
}

; Function Attrs: mustprogress uwtable
define available_externally noundef nonnull align 8 dereferenceable(8) ptr @_ZNSolsEf(ptr noundef nonnull align 8 dereferenceable(8) %0, float noundef %1) #7 align 2 {
  %3 = alloca ptr, align 8
  %4 = alloca float, align 4
  store ptr %0, ptr %3, align 8, !tbaa !14
  store float %1, ptr %4, align 4, !tbaa !73
  %5 = load ptr, ptr %3, align 8
  %6 = load float, ptr %4, align 4, !tbaa !73
  %7 = fpext float %6 to double
  %8 = call noundef nonnull align 8 dereferenceable(8) ptr @_ZNSo9_M_insertIdEERSoT_(ptr noundef nonnull align 8 dereferenceable(8) %5, double noundef %7)
  ret ptr %8
}

; Function Attrs: inlinehint mustprogress uwtable
define available_externally noundef nonnull align 8 dereferenceable(8) ptr @_ZStlsISt11char_traitsIcEERSt13basic_ostreamIcT_ES5_PKc(ptr noundef nonnull align 8 dereferenceable(8) %0, ptr noundef %1) #8 {
  %3 = alloca ptr, align 8
  %4 = alloca ptr, align 8
  store ptr %0, ptr %3, align 8, !tbaa !14
  store ptr %1, ptr %4, align 8, !tbaa !18
  %5 = load ptr, ptr %4, align 8, !tbaa !18
  %6 = icmp ne ptr %5, null
  br i1 %6, label %13, label %7

7:                                                ; preds = %2
  %8 = load ptr, ptr %3, align 8, !tbaa !14
  %9 = load ptr, ptr %8, align 8, !tbaa !20
  %10 = getelementptr i8, ptr %9, i64 -24
  %11 = load i64, ptr %10, align 8
  %12 = getelementptr inbounds i8, ptr %8, i64 %11
  call void @_ZNSt9basic_iosIcSt11char_traitsIcEE8setstateESt12_Ios_Iostate(ptr noundef nonnull align 8 dereferenceable(264) %12, i32 noundef 1)
  br label %19

13:                                               ; preds = %2
  %14 = load ptr, ptr %3, align 8, !tbaa !14
  %15 = load ptr, ptr %4, align 8, !tbaa !18
  %16 = load ptr, ptr %4, align 8, !tbaa !18
  %17 = call noundef i64 @_ZNSt11char_traitsIcE6lengthEPKc(ptr noundef %16)
  %18 = call noundef nonnull align 8 dereferenceable(8) ptr @_ZSt16__ostream_insertIcSt11char_traitsIcEERSt13basic_ostreamIT_T0_ES6_PKS3_l(ptr noundef nonnull align 8 dereferenceable(8) %14, ptr noundef %15, i64 noundef %17)
  br label %19

19:                                               ; preds = %13, %7
  %20 = load ptr, ptr %3, align 8, !tbaa !14
  ret ptr %20
}

; Function Attrs: mustprogress uwtable
define hidden void @_ZN3vas2ot13ObjectTracker4Impl12SetDeltaTimeEf(ptr noundef nonnull align 8 dereferenceable(53) %0, float noundef %1) #7 align 2 personality ptr @__gxx_personality_v0 {
  %3 = alloca ptr, align 8
  %4 = alloca float, align 4
  %5 = alloca ptr, align 8
  %6 = alloca i32, align 4
  store ptr %0, ptr %3, align 8, !tbaa !40
  store float %1, ptr %4, align 4, !tbaa !73
  %7 = load ptr, ptr %3, align 8
  %8 = load float, ptr %4, align 4, !tbaa !73
  %9 = fcmp olt float %8, 0x3F747AE140000000
  br i1 %9, label %13, label %10

10:                                               ; preds = %2
  %11 = load float, ptr %4, align 4, !tbaa !73
  %12 = fcmp ogt float %11, 5.000000e-01
  br i1 %12, label %13, label %24

13:                                               ; preds = %10, %2
  %14 = call noundef nonnull align 8 dereferenceable(8) ptr @_ZStlsISt11char_traitsIcEERSt13basic_ostreamIcT_ES5_PKc(ptr noundef nonnull align 8 dereferenceable(8) @_ZSt4cout, ptr noundef @.str.12)
  %15 = load float, ptr %4, align 4, !tbaa !73
  %16 = call noundef nonnull align 8 dereferenceable(8) ptr @_ZNSolsEf(ptr noundef nonnull align 8 dereferenceable(8) %14, float noundef %15)
  %17 = call noundef nonnull align 8 dereferenceable(8) ptr @_ZNSolsEPFRSoS_E(ptr noundef nonnull align 8 dereferenceable(8) %16, ptr noundef @_ZSt4endlIcSt11char_traitsIcEERSt13basic_ostreamIT_T0_ES6_)
  %18 = call ptr @__cxa_allocate_exception(i64 16) #3
  invoke void @_ZNSt16invalid_argumentC1EPKc(ptr noundef nonnull align 8 dereferenceable(16) %18, ptr noundef @.str.13)
          to label %19 unwind label %20

19:                                               ; preds = %13
  call void @__cxa_throw(ptr %18, ptr @_ZTISt16invalid_argument, ptr @_ZNSt16invalid_argumentD1Ev) #26
  unreachable

20:                                               ; preds = %13
  %21 = landingpad { ptr, i32 }
          cleanup
  %22 = extractvalue { ptr, i32 } %21, 0
  store ptr %22, ptr %5, align 8
  %23 = extractvalue { ptr, i32 } %21, 1
  store i32 %23, ptr %6, align 4
  call void @__cxa_free_exception(ptr %18) #3
  br label %27

24:                                               ; preds = %10
  %25 = load float, ptr %4, align 4, !tbaa !73
  %26 = getelementptr inbounds nuw %"class.vas::ot::ObjectTracker::Impl", ptr %7, i32 0, i32 3
  store float %25, ptr %26, align 4, !tbaa !68
  ret void

27:                                               ; preds = %20
  %28 = load ptr, ptr %5, align 8
  %29 = load i32, ptr %6, align 4
  %30 = insertvalue { ptr, i32 } poison, ptr %28, 0
  %31 = insertvalue { ptr, i32 } %30, i32 %29, 1
  resume { ptr, i32 } %31
}