; Function Attrs: mustprogress uwtable
define hidden void @_ZN3vas2ot13ObjectTracker4Impl12SetDeltaTimeEf(ptr noundef nonnull writeonly align 8 captures(none) dereferenceable(53) %0, float noundef %1) local_unnamed_addr #7 align 2 personality ptr @__gxx_personality_v0 {
  %3 = fcmp olt float %1, 0x3F747AE140000000
  %4 = fcmp ogt float %1, 5.000000e-01
  %or.cond = or i1 %3, %4
  br i1 %or.cond, label %5, label %14

5:                                                ; preds = %2
  %6 = tail call noundef nonnull align 8 dereferenceable(8) ptr @_ZSt16__ostream_insertIcSt11char_traitsIcEERSt13basic_ostreamIT_T0_ES6_PKS3_l(ptr noundef nonnull align 8 dereferenceable(8) @_ZSt4cout, ptr noundef nonnull @.str.12, i64 noundef 46)
  %7 = fpext float %1 to double
  %8 = tail call noundef nonnull align 8 dereferenceable(8) ptr @_ZNSo9_M_insertIdEERSoT_(ptr noundef nonnull align 8 dereferenceable(8) @_ZSt4cout, double noundef %7)
  %9 = tail call noundef nonnull align 8 dereferenceable(8) ptr @_ZSt4endlIcSt11char_traitsIcEERSt13basic_ostreamIT_T0_ES6_(ptr noundef nonnull align 8 dereferenceable(8) %8)
  %10 = tail call ptr @__cxa_allocate_exception(i64 16) #29
  invoke void @_ZNSt16invalid_argumentC1EPKc(ptr noundef nonnull align 8 dereferenceable(16) %10, ptr noundef nonnull @.str.13)
          to label %11 unwind label %12

11:                                               ; preds = %5
  tail call void @__cxa_throw(ptr nonnull %10, ptr nonnull @_ZTISt16invalid_argument, ptr nonnull @_ZNSt16invalid_argumentD1Ev) #31
  unreachable

12:                                               ; preds = %5
  %13 = landingpad { ptr, i32 }
          cleanup
  tail call void @__cxa_free_exception(ptr nonnull %10) #29
  resume { ptr, i32 } %13

14:                                               ; preds = %2
  %15 = getelementptr inbounds nuw i8, ptr %0, i64 36
  store float %1, ptr %15, align 4, !tbaa !65
  ret void
}